; Function Attrs: mustprogress nounwind uwtable
define hidden { ptr, i8 } @_ZN8JVMCIEnv36get_VMIntrinsicMethod_declaringClassE11JVMCIObject(ptr noundef nonnull align 8 dereferenceable(64) %0, ptr %1, i8 %2) local_unnamed_addr #0 align 2 {
  %4 = getelementptr inbounds i8, ptr %0, i64 24
  %5 = load i8, ptr %4, align 8
  %6 = trunc i8 %5 to i1
  br i1 %6, label %7, label %11

7:                                                ; preds = %3
  %8 = tail call noundef ptr @_ZN12HotSpotJVMCI7resolveE11JVMCIObject(ptr %1, i8 %2) #14
  %9 = tail call noundef ptr @_ZN12HotSpotJVMCI17VMIntrinsicMethod14declaringClassEP8JVMCIEnvP7oopDesc(ptr noundef nonnull %0, ptr noundef %8) #14
  %10 = tail call { ptr, i8 } @_ZN12HotSpotJVMCI4wrapEP7oopDesc(ptr noundef %9) #14
  br label %13

11:                                               ; preds = %3
  %12 = tail call { ptr, i8 } @_ZN8JNIJVMCI17VMIntrinsicMethod18get_declaringClassEP8JVMCIEnv11JVMCIObject(ptr noundef nonnull %0, ptr %1, i8 %2) #14
  br label %13

13:                                               ; preds = %11, %7
  %.pn = phi { ptr, i8 } [ %10, %7 ], [ %12, %11 ]
  ret { ptr, i8 } %.pn
}